; Function Attrs: mustprogress nofree norecurse nosync nounwind ssp willreturn memory(argmem: readwrite) uwtable
define noundef nonnull align 8 dereferenceable(120) ptr @_ZN6open3d8geometry8MeshBase5ClearEv(ptr noundef nonnull returned align 8 captures(ret: address, provenance) dereferenceable(120) %0) unnamed_addr #1 align 2 personality ptr @__gxx_personality_v0 {
  %2 = getelementptr inbounds nuw i8, ptr %0, i64 48
  %3 = load ptr, ptr %2, align 8, !tbaa !7
  %4 = getelementptr inbounds nuw i8, ptr %0, i64 56
  %5 = load ptr, ptr %4, align 8, !tbaa !20
  %.not.i.i = icmp eq ptr %5, %3
  br i1 %.not.i.i, label %_ZNSt6vectorIN5Eigen6MatrixIdLi3ELi1ELi0ELi3ELi1EEESaIS2_EE5clearEv.exit, label %_ZSt8_DestroyIPN5Eigen6MatrixIdLi3ELi1ELi0ELi3ELi1EEES2_EvT_S4_RSaIT0_E.exit.i.i

_ZSt8_DestroyIPN5Eigen6MatrixIdLi3ELi1ELi0ELi3ELi1EEES2_EvT_S4_RSaIT0_E.exit.i.i: ; preds = %1
  store ptr %3, ptr %4, align 8, !tbaa !20
  br label %_ZNSt6vectorIN5Eigen6MatrixIdLi3ELi1ELi0ELi3ELi1EEESaIS2_EE5clearEv.exit

_ZNSt6vectorIN5Eigen6MatrixIdLi3ELi1ELi0ELi3ELi1EEESaIS2_EE5clearEv.exit: ; preds = %1, %_ZSt8_DestroyIPN5Eigen6MatrixIdLi3ELi1ELi0ELi3ELi1EEES2_EvT_S4_RSaIT0_E.exit.i.i
  %6 = getelementptr inbounds nuw i8, ptr %0, i64 72
  %7 = load ptr, ptr %6, align 8, !tbaa !7
  %8 = getelementptr inbounds nuw i8, ptr %0, i64 80
  %9 = load ptr, ptr %8, align 8, !tbaa !20
  %.not.i.i1 = icmp eq ptr %9, %7
  br i1 %.not.i.i1, label %_ZNSt6vectorIN5Eigen6MatrixIdLi3ELi1ELi0ELi3ELi1EEESaIS2_EE5clearEv.exit3, label %_ZSt8_DestroyIPN5Eigen6MatrixIdLi3ELi1ELi0ELi3ELi1EEES2_EvT_S4_RSaIT0_E.exit.i.i2

_ZSt8_DestroyIPN5Eigen6MatrixIdLi3ELi1ELi0ELi3ELi1EEES2_EvT_S4_RSaIT0_E.exit.i.i2: ; preds = %_ZNSt6vectorIN5Eigen6MatrixIdLi3ELi1ELi0ELi3ELi1EEESaIS2_EE5clearEv.exit
  store ptr %7, ptr %8, align 8, !tbaa !20
  br label %_ZNSt6vectorIN5Eigen6MatrixIdLi3ELi1ELi0ELi3ELi1EEESaIS2_EE5clearEv.exit3

_ZNSt6vectorIN5Eigen6MatrixIdLi3ELi1ELi0ELi3ELi1EEESaIS2_EE5clearEv.exit3: ; preds = %_ZNSt6vectorIN5Eigen6MatrixIdLi3ELi1ELi0ELi3ELi1EEESaIS2_EE5clearEv.exit, %_ZSt8_DestroyIPN5Eigen6MatrixIdLi3ELi1ELi0ELi3ELi1EEES2_EvT_S4_RSaIT0_E.exit.i.i2
  %10 = getelementptr inbounds nuw i8, ptr %0, i64 96
  %11 = load ptr, ptr %10, align 8, !tbaa !7
  %12 = getelementptr inbounds nuw i8, ptr %0, i64 104
  %13 = load ptr, ptr %12, align 8, !tbaa !20
  %.not.i.i4 = icmp eq ptr %13, %11
  br i1 %.not.i.i4, label %_ZNSt6vectorIN5Eigen6MatrixIdLi3ELi1ELi0ELi3ELi1EEESaIS2_EE5clearEv.exit6, label %_ZSt8_DestroyIPN5Eigen6MatrixIdLi3ELi1ELi0ELi3ELi1EEES2_EvT_S4_RSaIT0_E.exit.i.i5

_ZSt8_DestroyIPN5Eigen6MatrixIdLi3ELi1ELi0ELi3ELi1EEES2_EvT_S4_RSaIT0_E.exit.i.i5: ; preds = %_ZNSt6vectorIN5Eigen6MatrixIdLi3ELi1ELi0ELi3ELi1EEESaIS2_EE5clearEv.exit3
  store ptr %11, ptr %12, align 8, !tbaa !20
  br label %_ZNSt6vectorIN5Eigen6MatrixIdLi3ELi1ELi0ELi3ELi1EEESaIS2_EE5clearEv.exit6

_ZNSt6vectorIN5Eigen6MatrixIdLi3ELi1ELi0ELi3ELi1EEESaIS2_EE5clearEv.exit6: ; preds = %_ZNSt6vectorIN5Eigen6MatrixIdLi3ELi1ELi0ELi3ELi1EEESaIS2_EE5clearEv.exit3, %_ZSt8_DestroyIPN5Eigen6MatrixIdLi3ELi1ELi0ELi3ELi1EEES2_EvT_S4_RSaIT0_E.exit.i.i5
  ret ptr %0
}